; Function Attrs: nounwind uwtable
define dso_local i32 @clusteracct_storage_g_node_up(ptr noundef %0, ptr noundef %1, i64 noundef %2) local_unnamed_addr #0 {
  %4 = load i32, ptr @plugin_inited, align 4
  %5 = icmp eq i32 %4, 1
  br i1 %5, label %12, label %6

6:                                                ; preds = %3
  %7 = getelementptr inbounds nuw i8, ptr %1, i64 384
  tail call void @slurm_xfree(ptr noundef nonnull %7) #8
  %8 = getelementptr inbounds nuw i8, ptr %1, i64 392
  store i64 0, ptr %8, align 8
  %9 = getelementptr inbounds nuw i8, ptr %1, i64 400
  store i32 -2, ptr %9, align 8
  %10 = load ptr, ptr getelementptr inbounds nuw (i8, ptr @ops, i64 448), align 8
  %11 = tail call i32 %10(ptr noundef %0, ptr noundef %1, i64 noundef %2) #8
  br label %12

12:                                               ; preds = %3, %6
  %.0 = phi i32 [ %11, %6 ], [ 0, %3 ]
  ret i32 %.0
}